target datalayout = "e-m:e-p270:32:32-p271:32:32-p272:64:64-i64:64-i128:128-f80:128-n8:16:32:64-S128"
target triple = "x86_64-pc-linux-gnu"

%struct.AVEncryptionInfo = type { i32, i32, i32, ptr, i32, ptr, i32, ptr, i32 }

; Function Attrs: nounwind uwtable
define ptr @av_encryption_info_clone(ptr noundef %0) #0 {
  %2 = alloca ptr, align 8
  %3 = alloca ptr, align 8
  %4 = alloca ptr, align 8
  %5 = alloca i32, align 4
  store ptr %0, ptr %3, align 8, !tbaa !8
  call void @llvm.lifetime.start.p0(i64 8, ptr %4) #5
  %6 = load ptr, ptr %3, align 8, !tbaa !8
  %7 = getelementptr inbounds nuw %struct.AVEncryptionInfo, ptr %6, i32 0, i32 8
  %8 = load i32, ptr %7, align 8, !tbaa !19
  %9 = load ptr, ptr %3, align 8, !tbaa !8
  %10 = getelementptr inbounds nuw %struct.AVEncryptionInfo, ptr %9, i32 0, i32 4
  %11 = load i32, ptr %10, align 8, !tbaa !15
  %12 = load ptr, ptr %3, align 8, !tbaa !8
  %13 = getelementptr inbounds nuw %struct.AVEncryptionInfo, ptr %12, i32 0, i32 6
  %14 = load i32, ptr %13, align 8, !tbaa !17
  %15 = call ptr @av_encryption_info_alloc(i32 noundef %8, i32 noundef %11, i32 noundef %14)
  store ptr %15, ptr %4, align 8, !tbaa !8
  %16 = load ptr, ptr %4, align 8, !tbaa !8
  %17 = icmp ne ptr %16, null
  br i1 %17, label %19, label %18

18:                                               ; preds = %1
  store ptr null, ptr %2, align 8
  store i32 1, ptr %5, align 4
  br label %67

19:                                               ; preds = %1
  %20 = load ptr, ptr %3, align 8, !tbaa !8
  %21 = getelementptr inbounds nuw %struct.AVEncryptionInfo, ptr %20, i32 0, i32 0
  %22 = load i32, ptr %21, align 8, !tbaa !20
  %23 = load ptr, ptr %4, align 8, !tbaa !8
  %24 = getelementptr inbounds nuw %struct.AVEncryptionInfo, ptr %23, i32 0, i32 0
  store i32 %22, ptr %24, align 8, !tbaa !20
  %25 = load ptr, ptr %3, align 8, !tbaa !8
  %26 = getelementptr inbounds nuw %struct.AVEncryptionInfo, ptr %25, i32 0, i32 1
  %27 = load i32, ptr %26, align 4, !tbaa !21
  %28 = load ptr, ptr %4, align 8, !tbaa !8
  %29 = getelementptr inbounds nuw %struct.AVEncryptionInfo, ptr %28, i32 0, i32 1
  store i32 %27, ptr %29, align 4, !tbaa !21
  %30 = load ptr, ptr %3, align 8, !tbaa !8
  %31 = getelementptr inbounds nuw %struct.AVEncryptionInfo, ptr %30, i32 0, i32 2
  %32 = load i32, ptr %31, align 8, !tbaa !22
  %33 = load ptr, ptr %4, align 8, !tbaa !8
  %34 = getelementptr inbounds nuw %struct.AVEncryptionInfo, ptr %33, i32 0, i32 2
  store i32 %32, ptr %34, align 8, !tbaa !22
  %35 = load ptr, ptr %4, align 8, !tbaa !8
  %36 = getelementptr inbounds nuw %struct.AVEncryptionInfo, ptr %35, i32 0, i32 5
  %37 = load ptr, ptr %36, align 8, !tbaa !16
  %38 = load ptr, ptr %3, align 8, !tbaa !8
  %39 = getelementptr inbounds nuw %struct.AVEncryptionInfo, ptr %38, i32 0, i32 5
  %40 = load ptr, ptr %39, align 8, !tbaa !16
  %41 = load ptr, ptr %3, align 8, !tbaa !8
  %42 = getelementptr inbounds nuw %struct.AVEncryptionInfo, ptr %41, i32 0, i32 6
  %43 = load i32, ptr %42, align 8, !tbaa !17
  %44 = zext i32 %43 to i64
  call void @llvm.memcpy.p0.p0.i64(ptr align 1 %37, ptr align 1 %40, i64 %44, i1 false)
  %45 = load ptr, ptr %4, align 8, !tbaa !8
  %46 = getelementptr inbounds nuw %struct.AVEncryptionInfo, ptr %45, i32 0, i32 3
  %47 = load ptr, ptr %46, align 8, !tbaa !11
  %48 = load ptr, ptr %3, align 8, !tbaa !8
  %49 = getelementptr inbounds nuw %struct.AVEncryptionInfo, ptr %48, i32 0, i32 3
  %50 = load ptr, ptr %49, align 8, !tbaa !11
  %51 = load ptr, ptr %3, align 8, !tbaa !8
  %52 = getelementptr inbounds nuw %struct.AVEncryptionInfo, ptr %51, i32 0, i32 4
  %53 = load i32, ptr %52, align 8, !tbaa !15
  %54 = zext i32 %53 to i64
  call void @llvm.memcpy.p0.p0.i64(ptr align 1 %47, ptr align 1 %50, i64 %54, i1 false)
  %55 = load ptr, ptr %4, align 8, !tbaa !8
  %56 = getelementptr inbounds nuw %struct.AVEncryptionInfo, ptr %55, i32 0, i32 7
  %57 = load ptr, ptr %56, align 8, !tbaa !18
  %58 = load ptr, ptr %3, align 8, !tbaa !8
  %59 = getelementptr inbounds nuw %struct.AVEncryptionInfo, ptr %58, i32 0, i32 7
  %60 = load ptr, ptr %59, align 8, !tbaa !18
  %61 = load ptr, ptr %3, align 8, !tbaa !8
  %62 = getelementptr inbounds nuw %struct.AVEncryptionInfo, ptr %61, i32 0, i32 8
  %63 = load i32, ptr %62, align 8, !tbaa !19
  %64 = zext i32 %63 to i64
  %65 = mul i64 8, %64
  call void @llvm.memcpy.p0.p0.i64(ptr align 4 %57, ptr align 4 %60, i64 %65, i1 false)
  %66 = load ptr, ptr %4, align 8, !tbaa !8
  store ptr %66, ptr %2, align 8
  store i32 1, ptr %5, align 4
  br label %67

67:                                               ; preds = %19, %18
  call void @llvm.lifetime.end.p0(i64 8, ptr %4) #5
  %68 = load ptr, ptr %2, align 8
  ret ptr %68
}