; Function Attrs: nounwind uwtable
define ptr @av_encryption_info_clone(ptr noundef readonly captures(none) %0) local_unnamed_addr #0 {
  %2 = getelementptr inbounds nuw i8, ptr %0, i64 56
  %3 = load i32, ptr %2, align 8, !tbaa !16
  %4 = getelementptr inbounds nuw i8, ptr %0, i64 24
  %5 = load i32, ptr %4, align 8, !tbaa !12
  %6 = getelementptr inbounds nuw i8, ptr %0, i64 40
  %7 = load i32, ptr %6, align 8, !tbaa !14
  %8 = tail call ptr @av_encryption_info_alloc(i32 noundef %3, i32 noundef %5, i32 noundef %7)
  %.not = icmp eq ptr %8, null
  br i1 %.not, label %36, label %9

9:                                                ; preds = %1
  %10 = load i32, ptr %0, align 8, !tbaa !17
  store i32 %10, ptr %8, align 8, !tbaa !17
  %11 = getelementptr inbounds nuw i8, ptr %0, i64 4
  %12 = load i32, ptr %11, align 4, !tbaa !18
  %13 = getelementptr inbounds nuw i8, ptr %8, i64 4
  store i32 %12, ptr %13, align 4, !tbaa !18
  %14 = getelementptr inbounds nuw i8, ptr %0, i64 8
  %15 = load i32, ptr %14, align 8, !tbaa !19
  %16 = getelementptr inbounds nuw i8, ptr %8, i64 8
  store i32 %15, ptr %16, align 8, !tbaa !19
  %17 = getelementptr inbounds nuw i8, ptr %8, i64 32
  %18 = load ptr, ptr %17, align 8, !tbaa !13
  %19 = getelementptr inbounds nuw i8, ptr %0, i64 32
  %20 = load ptr, ptr %19, align 8, !tbaa !13
  %21 = load i32, ptr %6, align 8, !tbaa !14
  %22 = zext i32 %21 to i64
  tail call void @llvm.memcpy.p0.p0.i64(ptr align 1 %18, ptr align 1 %20, i64 %22, i1 false)
  %23 = getelementptr inbounds nuw i8, ptr %8, i64 16
  %24 = load ptr, ptr %23, align 8, !tbaa !4
  %25 = getelementptr inbounds nuw i8, ptr %0, i64 16
  %26 = load ptr, ptr %25, align 8, !tbaa !4
  %27 = load i32, ptr %4, align 8, !tbaa !12
  %28 = zext i32 %27 to i64
  tail call void @llvm.memcpy.p0.p0.i64(ptr align 1 %24, ptr align 1 %26, i64 %28, i1 false)
  %29 = getelementptr inbounds nuw i8, ptr %8, i64 48
  %30 = load ptr, ptr %29, align 8, !tbaa !15
  %31 = getelementptr inbounds nuw i8, ptr %0, i64 48
  %32 = load ptr, ptr %31, align 8, !tbaa !15
  %33 = load i32, ptr %2, align 8, !tbaa !16
  %34 = zext i32 %33 to i64
  %35 = shl nuw nsw i64 %34, 3
  tail call void @llvm.memcpy.p0.p0.i64(ptr align 4 %30, ptr align 4 %32, i64 %35, i1 false)
  br label %36

36:                                               ; preds = %1, %9
  ret ptr %8
}